; Function Attrs: mustprogress uwtable
define internal void @_ZL24pj_molodensky_forward_3d6PJ_LPZP8PJconsts(ptr dead_on_unwind noalias writable writeonly sret(%struct.PJ_XYZ) align 8 captures(none) initializes((0, 24)) %0, ptr noundef byval(%struct.PJ_LPZ) align 8 captures(none) %1, ptr noundef %2) #0 {
  %4 = alloca %struct.PJ_LPZ, align 8
  %5 = alloca %struct.PJ_LPZ, align 8
  %6 = alloca %union.PJ_COORD, align 8
  %7 = getelementptr inbounds nuw i8, ptr %2, i64 88
  %8 = load ptr, ptr %7, align 8, !tbaa !40
  %.sroa.0.0.copyload = load double, ptr %1, align 8, !tbaa !59
  %.sroa.7.0..sroa_idx = getelementptr inbounds nuw i8, ptr %1, i64 8
  %.sroa.7.0.copyload = load double, ptr %.sroa.7.0..sroa_idx, align 8, !tbaa !59
  %.sroa.9.0..sroa_idx = getelementptr inbounds nuw i8, ptr %1, i64 16
  %.sroa.9.0.copyload = load double, ptr %.sroa.9.0..sroa_idx, align 8, !tbaa !59
  %9 = getelementptr inbounds nuw i8, ptr %8, i64 40
  %10 = load i32, ptr %9, align 8, !tbaa !55
  %.not = icmp eq i32 %10, 0
  br i1 %.not, label %12, label %11

11:                                               ; preds = %3
  call void @llvm.lifetime.start.p0(i64 24, ptr nonnull %4) #9
  call fastcc void @_ZL20calc_abridged_params6PJ_LPZP8PJconsts(ptr dead_on_unwind noalias writable align 8 %4, ptr noundef nonnull byval(%struct.PJ_LPZ) align 8 %1, ptr noundef nonnull %2)
  call void @llvm.memcpy.p0.p0.i64(ptr noundef nonnull align 8 dereferenceable(24) %1, ptr noundef nonnull align 8 dereferenceable(24) %4, i64 24, i1 false), !tbaa.struct !67
  call void @llvm.lifetime.end.p0(i64 24, ptr nonnull %4) #9
  br label %13

12:                                               ; preds = %3
  call void @llvm.lifetime.start.p0(i64 24, ptr nonnull %5) #9
  call fastcc void @_ZL20calc_standard_params6PJ_LPZP8PJconsts(ptr dead_on_unwind noalias writable align 8 %5, ptr noundef nonnull byval(%struct.PJ_LPZ) align 8 %1, ptr noundef nonnull %2)
  call void @llvm.memcpy.p0.p0.i64(ptr noundef nonnull align 8 dereferenceable(24) %1, ptr noundef nonnull align 8 dereferenceable(24) %5, i64 24, i1 false), !tbaa.struct !67
  call void @llvm.lifetime.end.p0(i64 24, ptr nonnull %5) #9
  br label %13

13:                                               ; preds = %12, %11
  %14 = load double, ptr %1, align 8, !tbaa !60
  %15 = fcmp oeq double %14, 0x7FF0000000000000
  br i1 %15, label %16, label %18

16:                                               ; preds = %13
  %17 = tail call i32 @proj_errno_set(ptr noundef nonnull %2, i32 noundef 2050)
  call void @llvm.lifetime.start.p0(i64 32, ptr nonnull %6) #9
  call void @_Z16proj_coord_errorv(ptr dead_on_unwind nonnull writable sret(%union.PJ_COORD) align 8 %6)
  call void @llvm.memcpy.p0.p0.i64(ptr noundef nonnull align 8 dereferenceable(24) %0, ptr noundef nonnull align 8 dereferenceable(24) %6, i64 24, i1 false), !tbaa.struct !67
  call void @llvm.lifetime.end.p0(i64 32, ptr nonnull %6) #9
  br label %24

18:                                               ; preds = %13
  %19 = load double, ptr %.sroa.7.0..sroa_idx, align 8, !tbaa !62
  %20 = fadd double %.sroa.7.0.copyload, %19
  %21 = fadd double %.sroa.0.0.copyload, %14
  %22 = load double, ptr %.sroa.9.0..sroa_idx, align 8, !tbaa !63
  %23 = fadd double %.sroa.9.0.copyload, %22
  store double %21, ptr %0, align 8, !tbaa !59
  %.sroa.7.0..sroa_idx2 = getelementptr inbounds nuw i8, ptr %0, i64 8
  store double %20, ptr %.sroa.7.0..sroa_idx2, align 8, !tbaa !59
  %.sroa.9.0..sroa_idx4 = getelementptr inbounds nuw i8, ptr %0, i64 16
  store double %23, ptr %.sroa.9.0..sroa_idx4, align 8, !tbaa !59
  br label %24

24:                                               ; preds = %18, %16
  ret void
}